(lp0
S'http://www.dw.de/21032014-langsam-gesprochene-nachrichten/a-17512003'
p1
aS'http://www.dw.de/20032014-langsam-gesprochene-nachrichten/a-17509773'
p2
aS'http://www.dw.de/19032014-langsam-gesprochene-nachrichten/a-17506457'
p3
aS'http://www.dw.de/18032014-langsam-gesprochene-nachrichten/a-17503312'
p4
aS'http://www.dw.de/17032014-langsam-gesprochene-nachrichten/a-17500832'
p5
aS'http://www.dw.de/14032014-langsam-gesprochene-nachrichten/a-17496409'
p6
aS'http://www.dw.de/13032014-langsam-gesprochene-nachrichten/a-17493864'
p7
aS'http://www.dw.de/12032014-langsam-gesprochene-nachrichten/a-17489355'
p8
aS'http://www.dw.de/11032014-langsam-gesprochene-nachrichten/a-17487094'
p9
aS'http://www.dw.de/10032014-langsam-gesprochene-nachrichten/a-17485044'
p10
aS'http://www.dw.de/07032014-langsam-gesprochene-nachrichten/a-17480884'
p11
aS'http://www.dw.de/06032014-langsam-gesprochene-nachrichten/a-17478695'
p12
aS'http://www.dw.de/05032014-langsam-gesprochene-nachrichten/a-17476628'
p13
aS'http://www.dw.de/04032014-langsam-gesprochene-nachrichten/a-17471909'
p14
aS'http://www.dw.de/03032014-langsam-gesprochene-nachrichten/a-17469095'
p15
aS'http://www.dw.de/28022014-langsam-gesprochene-nachrichten/a-17464434'
p16
aS'http://www.dw.de/27022014-langsam-gesprochene-nachrichten/a-17460534'
p17
aS'http://www.dw.de/26022014-langsam-gesprochene-nachrichten/a-17457331'
p18
aS'http://www.dw.de/25022014-langsam-gesprochene-nachrichten/a-17454995'
p19
aS'http://www.dw.de/24022014-langsam-gesprochene-nachrichten/a-17452938'
p20
aS'http://www.dw.de/21022014-langsam-gesprochene-nachrichten/a-17448614'
p21
aS'http://www.dw.de/20022014-langsam-gesprochene-nachrichten/a-17443765'
p22
aS'http://www.dw.de/19022014-langsam-gesprochene-nachrichten/a-17441644'
p23
aS'http://www.dw.de/18022014-langsam-gesprochene-nachrichten/a-17439387'
p24
aS'http://www.dw.de/17022014-langsam-gesprochene-nachrichten/a-17437102'
p25
aS'http://www.dw.de/14022014-langsam-gesprochene-nachrichten/a-17430207'
p26
aS'http://www.dw.de/13022014-langsam-gesprochene-nachrichten/a-17428154'
p27
aS'http://www.dw.de/12022014-langsam-gesprochene-nachrichten/a-17425873'
p28
aS'http://www.dw.de/11022014-langsam-gesprochene-nachrichten/a-17423353'
p29
aS'http://www.dw.de/10022014-langsam-gesprochene-nachrichten/a-17420897'
p30
aS'http://www.dw.de/07022014-langsam-gesprochene-nachrichten/a-17415622'
p31
aS'http://www.dw.de/06022014-langsam-gesprochene-nachrichten/a-17411490'
p32
aS'http://www.dw.de/05022014-langsam-gesprochene-nachrichten/a-17409171'
p33
aS'http://www.dw.de/04022014-langsam-gesprochene-nachrichten/a-17406764'
p34
aS'http://www.dw.de/03022014-langsam-gesprochene-nachrichten/a-17404750'
p35
aS'http://www.dw.de/31012014-langsam-gesprochene-nachrichten/a-17397726'
p36
aS'http://www.dw.de/30012014-langsam-gesprochene-nachrichten/a-17395459'
p37
aS'http://www.dw.de/29012014-langsam-gesprochene-nachrichten/a-17393376'
p38
aS'http://www.dw.de/28012014-langsam-gesprochene-nachrichten/a-17391801'
p39
aS'http://www.dw.de/27012014-langsam-gesprochene-nachrichten/a-17388833'
p40
aS'http://www.dw.de/24012014-langsam-gesprochene-nachrichten/a-17384539'
p41
aS'http://www.dw.de/23012014-langsam-gesprochene-nachrichten/a-17382326'
p42
aS'http://www.dw.de/22012014-langsam-gesprochene-nachrichten/a-17379246'
p43
aS'http://www.dw.de/21012014-langsam-gesprochene-nachrichten/a-17375465'
p44
aS'http://www.dw.de/20012014-langsam-gesprochene-nachrichten/a-17373328'
p45
aS'http://www.dw.de/17012014-langsam-gesprochene-nachrichten/a-17369290'
p46
aS'http://www.dw.de/16012014-langsam-gesprochene-nachrichten/a-17365290'
p47
aS'http://www.dw.de/15012014-langsam-gesprochene-nachrichten/a-17362143'
p48
aS'http://www.dw.de/14012014-langsam-gesprochene-nachrichten/a-17360284'
p49
aS'http://www.dw.de/13012014-langsam-gesprochene-nachrichten/a-17357717'
p50
aS'http://www.dw.de/10012014-langsam-gesprochene-nachrichten/a-17353487'
p51
aS'http://www.dw.de/09012014-langsam-gesprochene-nachrichten/a-17350597'
p52
aS'http://www.dw.de/08012014-langsam-gesprochene-nachrichten/a-17347332'
p53
aS'http://www.dw.de/07012014-langsam-gesprochene-nachrichten/a-17345019'
p54
aS'http://www.dw.de/06012014-langsam-gesprochene-nachrichten/a-17342925'
p55
aS'http://www.dw.de/03012014-langsam-gesprochene-nachrichten/a-17339126'
p56
aS'http://www.dw.de/02012014-langsam-gesprochene-nachrichten/a-17337374'
p57
aS'http://www.dw.de/01012014-langsam-gesprochene-nachrichten/a-17336128'
p58
aS'http://www.dw.de/31122013-langsam-gesprochene-nachrichten/a-17334311'
p59
aS'http://www.dw.de/30122013-langsam-gesprochene-nachrichten/a-17330333'
p60
aS'http://www.dw.de/27122013-langsam-gesprochene-nachrichten/a-17326166'
p61
aS'http://www.dw.de/26122013-langsam-gesprochene-nachrichten/a-17324767'
p62
aS'http://www.dw.de/25122013-langsam-gesprochene-nachrichten/a-17323596'
p63
aS'http://www.dw.de/24122013-langsam-gesprochene-nachrichten/a-17322014'
p64
aS'http://www.dw.de/23122013-langsam-gesprochene-nachrichten/a-17317207'
p65
aS'http://www.dw.de/20122013-langsam-gesprochene-nachrichten/a-17312782'
p66
aS'http://www.dw.de/19122013-langsam-gesprochene-nachrichten/a-17307229'
p67
aS'http://www.dw.de/18122013-langsam-gesprochene-nachrichten/a-17304853'
p68
aS'http://www.dw.de/17122013-langsam-gesprochene-nachrichten/a-17301260'
p69
aS'http://www.dw.de/16122013-langsam-gesprochene-nachrichten/a-17298747'
p70
aS'http://www.dw.de/13122013-langsam-gesprochene-nachrichten/a-17292983'
p71
aS'http://www.dw.de/12122013-langsam-gesprochene-nachrichten/a-17289348'
p72
aS'http://www.dw.de/11122013-langsam-gesprochene-nachrichten/a-17287031'
p73
aS'http://www.dw.de/10122013-langsam-gesprochene-nachrichten/a-17282435'
p74
aS'http://www.dw.de/09122013-langsam-gesprochene-nachrichten/a-17280139'
p75
aS'http://www.dw.de/06122013-langsam-gesprochene-nachrichten/a-17275260'
p76
aS'http://www.dw.de/05122013-langsam-gesprochene-nachrichten/a-17272355'
p77
aS'http://www.dw.de/04122013-langsam-gesprochene-nachrichten/a-17269933'
p78
aS'http://www.dw.de/03122013-langsam-gesprochene-nachrichten/a-17267843'
p79
aS'http://www.dw.de/02122013-langsam-gesprochene-nachrichten/a-17265471'
p80
aS'http://www.dw.de/29112013-langsam-gesprochene-nachrichten/a-17261329'
p81
aS'http://www.dw.de/28112013-langsam-gesprochene-nachrichten/a-17258912'
p82
aS'http://www.dw.de/27112013-langsam-gesprochene-nachrichten/a-17256768'
p83
aS'http://www.dw.de/26112013-langsam-gesprochene-nachrichten/a-17254459'
p84
aS'http://www.dw.de/25112013-langsam-gesprochene-nachrichten/a-17249813'
p85
aS'http://www.dw.de/22112013-langsam-gesprochene-nachrichten/a-17245379'
p86
aS'http://www.dw.de/21112013-langsam-gesprochene-nachrichten/a-17243238'
p87
aS'http://www.dw.de/20112013-langsam-gesprochene-nachrichten/a-17241085'
p88
aS'http://www.dw.de/19112013-langsam-gesprochene-nachrichten/a-17238879'
p89
aS'http://www.dw.de/18112013-langsam-gesprochene-nachrichten/a-17233770'
p90
aS'http://www.dw.de/15112013-langsam-gesprochene-nachrichten/a-17229344'
p91
aS'http://www.dw.de/14112013-langsam-gesprochene-nachrichten/a-17226370'
p92
aS'http://www.dw.de/13112013-langsam-gesprochene-nachrichten/a-17222522'
p93
aS'http://www.dw.de/12112013-langsam-gesprochene-nachrichten/a-17220125'
p94
aS'http://www.dw.de/11112013-langsam-gesprochene-nachrichten/a-17217836'
p95
aS'http://www.dw.de/08112013-langsam-gesprochene-nachrichten/a-17213493'
p96
aS'http://www.dw.de/07112013-langsam-gesprochene-nachrichten/a-17211393'
p97
aS'http://www.dw.de/06112013-langsam-gesprochene-nachrichten/a-17209177'
p98
aS'http://www.dw.de/05112013-langsam-gesprochene-nachrichten/a-17204222'
p99
aS'http://www.dw.de/04112013-langsam-gesprochene-nachrichten/a-17202279'
p100
aS'http://www.dw.de/01112013-langsam-gesprochene-nachrichten/a-17198149'
p101
aS'http://www.dw.de/31102013-langsam-gesprochene-nachrichten/a-17195881'
p102
aS'http://www.dw.de/30102013-langsam-gesprochene-nachrichten/a-17193839'
p103
aS'http://www.dw.de/29102013-langsam-gesprochene-nachrichten/a-17189045'
p104
aS'http://www.dw.de/28102013-langsam-gesprochene-nachrichten/a-17187201'
p105
aS'http://www.dw.de/25102013-langsam-gesprochene-nachrichten/a-17182863'
p106
aS'http://www.dw.de/24102013-langsam-gesprochene-nachrichten/a-17180392'
p107
aS'http://www.dw.de/23102013-langsam-gesprochene-nachrichten/a-17178133'
p108
aS'http://www.dw.de/22102013-langsam-gesprochene-nachrichten/a-17174543'
p109
aS'http://www.dw.de/21102013-langsam-gesprochene-nachrichten/a-17171265'
p110
aS'http://www.dw.de/18102013-langsam-gesprochene-nachrichten/a-17167010'
p111
aS'http://www.dw.de/17102013-langsam-gesprochene-nachrichten/a-17164844'
p112
aS'http://www.dw.de/16102013-langsam-gesprochene-nachrichten/a-17161664'
p113
aS'http://www.dw.de/15102013-langsam-gesprochene-nachrichten/a-17157934'
p114
aS'http://www.dw.de/14102013-langsam-gesprochene-nachrichten/a-17156009'
p115
aS'http://www.dw.de/11102013-langsam-gesprochene-nachrichten/a-17151308'
p116
aS'http://www.dw.de/10102013-langsam-gesprochene-nachrichten/a-17149042'
p117
aS'http://www.dw.de/09102013-langsam-gesprochene-nachrichten/a-17146241'
p118
aS'http://www.dw.de/08102013-langsam-gesprochene-nachrichten/a-17144068'
p119
aS'http://www.dw.de/07102013-langsam-gesprochene-nachrichten/a-17138927'
p120
aS'http://www.dw.de/04102013-langsam-gesprochene-nachrichten/a-17134847'
p121
aS'http://www.dw.de/03102013-langsam-gesprochene-nachrichten/a-17133565'
p122
aS'http://www.dw.de/02102013-langsam-gesprochene-nachrichten/a-17131408'
p123
aS'http://www.dw.de/01102013-langsam-gesprochene-nachrichten/a-17129058'
p124
aS'http://www.dw.de/30092013-langsam-gesprochene-nachrichten/a-17122827'
p125
aS'http://www.dw.de/27092013-langsam-gesprochene-nachrichten/a-17118378'
p126
aS'http://www.dw.de/26092013-langsam-gesprochene-nachrichten/a-17116186'
p127
aS'http://www.dw.de/25092013-langsam-gesprochene-nachrichten/a-17114242'
p128
aS'http://www.dw.de/24092013-langsam-gesprochene-nachrichten/a-17109028'
p129
aS'http://www.dw.de/23092013-langsam-gesprochene-nachrichten/a-17106756'
p130
aS'http://www.dw.de/20092013-langsam-gesprochene-nachrichten/a-17101717'
p131
aS'http://www.dw.de/19092013-langsam-gesprochene-nachrichten/a-17099803'
p132
aS'http://www.dw.de/18092013-langsam-gesprochene-nachrichten/a-17097672'
p133
aS'http://www.dw.de/17092013-langsam-gesprochene-nachrichten/a-17092720'
p134
aS'http://www.dw.de/16092013-langsam-gesprochene-nachrichten/a-17090596'
p135
aS'http://www.dw.de/13092013-langsam-gesprochene-nachrichten/a-17086392'
p136
aS'http://www.dw.de/12092013-langsam-gesprochene-nachrichten/a-17084221'
p137
aS'http://www.dw.de/11092013-langsam-gesprochene-nachrichten/a-17081801'
p138
aS'http://www.dw.de/10092013-langsam-gesprochene-nachrichten/a-17077260'
p139
aS'http://www.dw.de/09092013-langsam-gesprochene-nachrichten/a-17074981'
p140
aS'http://www.dw.de/06092013-langsam-gesprochene-nachrichten/a-17070819'
p141
aS'http://www.dw.de/05092013-langsam-gesprochene-nachrichten/a-17068664'
p142
aS'http://www.dw.de/04092013-langsam-gesprochene-nachrichten/a-17066560'
p143
aS'http://www.dw.de/03092013-langsam-gesprochene-nachrichten/a-17061785'
p144
aS'http://www.dw.de/02092013-langsam-gesprochene-nachrichten/a-17059572'
p145
aS'http://www.dw.de/30082013-langsam-gesprochene-nachrichten/a-17055479'
p146
aS'http://www.dw.de/29082013-langsam-gesprochene-nachrichten/a-17053213'
p147
aS'http://www.dw.de/28082013-langsam-gesprochene-nachrichten/a-17050935'
p148
aS'http://www.dw.de/27082013-langsam-gesprochene-nachrichten/a-17046561'
p149
aS'http://www.dw.de/26082013-langsam-gesprochene-nachrichten/a-17044351'
p150
aS'http://www.dw.de/23082013-langsam-gesprochene-nachrichten/a-17040480'
p151
aS'http://www.dw.de/22082013-langsam-gesprochene-nachrichten/a-17038273'
p152
aS'http://www.dw.de/21082013-langsam-gesprochene-nachrichten/a-17036098'
p153
aS'http://www.dw.de/20082013-langsam-gesprochene-nachrichten/a-17031335'
p154
aS'http://www.dw.de/19082013-langsam-gesprochene-nachrichten/a-17028767'
p155
aS'http://www.dw.de/16082013-langsam-gesprochene-nachrichten/a-17024511'
p156
aS'http://www.dw.de/15082013-langsam-gesprochene-nachrichten/a-17022518'
p157
aS'http://www.dw.de/14082013-langsam-gesprochene-nachrichten/a-17017635'
p158
aS'http://www.dw.de/13082013-langsam-gesprochene-nachrichten/a-17015138'
p159
aS'http://www.dw.de/12082013-langsam-gesprochene-nachrichten/a-17012993'
p160
aS'http://www.dw.de/09082013-langsam-gesprochene-nachrichten/a-17008843'
p161
aS'http://www.dw.de/08082013-langsam-gesprochene-nachrichten/a-17005282'
p162
aS'http://www.dw.de/07082013-langsam-gesprochene-nachrichten/a-17002945'
p163
aS'http://www.dw.de/06082013-langsam-gesprochene-nachrichten/a-16999489'
p164
aS'http://www.dw.de/05082013-langsam-gesprochene-nachrichten/a-16997242'
p165
aS'http://www.dw.de/02082013-langsam-gesprochene-nachrichten/a-16992815'
p166
aS'http://www.dw.de/01082013-langsam-gesprochene-nachrichten/a-16990865'
p167
aS'http://www.dw.de/31072013-langsam-gesprochene-nachrichten/a-16988811'
p168
aS'http://www.dw.de/30072013-langsam-gesprochene-nachrichten/a-16986628'
p169
aS'http://www.dw.de/29072013-langsam-gesprochene-nachrichten/a-16981612'
p170
aS'http://www.dw.de/26072013-langsam-gesprochene-nachrichten/a-16977223'
p171
aS'http://www.dw.de/25072013-langsam-gesprochene-nachrichten/a-16975221'
p172
aS'http://www.dw.de/24072013-langsam-gesprochene-nachrichten/a-16972987'
p173
aS'http://www.dw.de/23072013-langsam-gesprochene-nachrichten/a-16968175'
p174
aS'http://www.dw.de/22072013-langsam-gesprochene-nachrichten/a-16966249'
p175
aS'http://www.dw.de/19072013-langsam-gesprochene-nachrichten/a-16961994'
p176
aS'http://www.dw.de/18072013-langsam-gesprochene-nachrichten/a-16959854'
p177
aS'http://www.dw.de/17072013-langsam-gesprochene-nachrichten/a-16957515'
p178
aS'http://www.dw.de/16072013-langsam-gesprochene-nachrichten/a-16952826'
p179
aS'http://www.dw.de/15072013-langsam-gesprochene-nachrichten/a-16950824'
p180
aS'http://www.dw.de/12072013-langsam-gesprochene-nachrichten/a-16946931'
p181
aS'http://www.dw.de/11072013-langsam-gesprochene-nachrichten/a-16944649'
p182
aS'http://www.dw.de/10072013-langsam-gesprochene-nachrichten/a-16940713'
p183
aS'http://www.dw.de/09072013-langsam-gesprochene-nachrichten/a-16937251'
p184
aS'http://www.dw.de/08072013-langsam-gesprochene-nachrichten/a-16935382'
p185
aS'http://www.dw.de/05072013-langsam-gesprochene-nachrichten/a-16931062'
p186
aS'http://www.dw.de/04072013-langsam-gesprochene-nachrichten/a-16928966'
p187
aS'http://www.dw.de/03072013-langsam-gesprochene-nachrichten/a-16925580'
p188
aS'http://www.dw.de/02072013-langsam-gesprochene-nachrichten/a-16921452'
p189
aS'http://www.dw.de/01072013-langsam-gesprochene-nachrichten/a-16917249'
p190
aS'http://www.dw.de/28062013-langsam-gesprochene-nachrichten/a-16913045'
p191
aS'http://www.dw.de/27062013-langsam-gesprochene-nachrichten/a-16910785'
p192
aS'http://www.dw.de/26062013-langsam-gesprochene-nachrichten/a-16908511'
p193
aS'http://www.dw.de/25062013-langsam-gesprochene-nachrichten/a-16903895'
p194
aS'http://www.dw.de/24062013-langsam-gesprochene-nachrichten/a-16901735'
p195
aS'http://www.dw.de/21062013-langsam-gesprochene-nachrichten/a-16897791'
p196
aS'http://www.dw.de/20062013-langsam-gesprochene-nachrichten/a-16895646'
p197
aS'http://www.dw.de/19062013-langsam-gesprochene-nachrichten/a-16893316'
p198
aS'http://www.dw.de/18062013-langsam-gesprochene-nachrichten/a-16888496'
p199
aS'http://www.dw.de/17062013-langsam-gesprochene-nachrichten/a-16886528'
p200
aS'http://www.dw.de/14062013-langsam-gesprochene-nachrichten/a-16879637'
p201
aS'http://www.dw.de/13062013-langsam-gesprochene-nachrichten/a-16877965'
p202
aS'http://www.dw.de/12062013-langsam-gesprochene-nachrichten/a-16875526'
p203
aS'http://www.dw.de/11062013-langsam-gesprochene-nachrichten/a-16873082'
p204
aS'http://www.dw.de/10062013-langsam-gesprochene-nachrichten/a-16869987'
p205
aS'http://www.dw.de/07062013-langsam-gesprochene-nachrichten/a-16865766'
p206
aS'http://www.dw.de/06062013-langsam-gesprochene-nachrichten/a-16863401'
p207
aS'http://www.dw.de/05062013-langsam-gesprochene-nachrichten/a-16859144'
p208
aS'http://www.dw.de/04062013-langsam-gesprochene-nachrichten/a-16857094'
p209
aS'http://www.dw.de/03062013-langsam-gesprochene-nachrichten/a-16854901'
p210
aS'http://www.dw.de/31052013-langsam-gesprochene-nachrichten/a-16850813'
p211
aS'http://www.dw.de/30052013-langsam-gesprochene-nachrichten/a-16849070'
p212
aS'http://www.dw.de/29052013-langsam-gesprochene-nachrichten/a-16844492'
p213
aS'http://www.dw.de/28052013-langsam-gesprochene-nachrichten/a-16841493'
p214
aS'http://www.dw.de/27052013-langsam-gesprochene-nachrichten/a-16838362'
p215
aS'http://www.dw.de/24052013-langsam-gesprochene-nachrichten/a-16833799'
p216
aS'http://www.dw.de/23052013-langsam-gesprochene-nachrichten/a-16830940'
p217
aS'http://www.dw.de/21052013-langsam-gesprochene-nachrichten/a-16826267'
p218
aS'http://www.dw.de/20052013-langsam-gesprochene-nachrichten/a-16824673'
p219
aS'http://www.dw.de/17052013-langsam-gesprochene-nachrichten/a-16820267'
p220
aS'http://www.dw.de/16052013-langsam-gesprochene-nachrichten/a-16817133'
p221
aS'http://www.dw.de/15052013-langsam-gesprochene-nachrichten/a-16813323'
p222
aS'http://www.dw.de/14052013-langsam-gesprochene-nachrichten/a-16810724'
p223
aS'http://www.dw.de/13052013-langsam-gesprochene-nachrichten/a-16808780'
p224
aS'http://www.dw.de/10052013-langsam-gesprochene-nachrichten/a-16802860'
p225
aS'http://www.dw.de/09052013-langsam-gesprochene-nachrichten/a-16801259'
p226
aS'http://www.dw.de/08052013-langsam-gesprochene-nachrichten/a-16798057'
p227
aS'http://www.dw.de/07052013-langsam-gesprochene-nachrichten/a-16795655'
p228
aS'http://www.dw.de/06052013-langsam-gesprochene-nachrichten/a-16793401'
p229
aS'http://www.dw.de/03052013-langsam-gesprochene-nachrichten/a-16787034'
p230
aS'http://www.dw.de/02052013-langsam-gesprochene-nachrichten/a-16784412'
p231
aS'http://www.dw.de/01052013-langsam-gesprochene-nachrichten/a-16783112'
p232
aS'http://www.dw.de/30042013-langsam-gesprochene-nachrichten/a-16780689'
p233
aS'http://www.dw.de/29042013-langsam-gesprochene-nachrichten/a-16778194'
p234
aS'http://www.dw.de/26042013-langsam-gesprochene-nachrichten/a-16773696'
p235
aS'http://www.dw.de/25042013-langsam-gesprochene-nachrichten/a-16771523'
p236
aS'http://www.dw.de/24042013-langsam-gesprochene-nachrichten/a-16766651'
p237
aS'http://www.dw.de/23042013-langsam-gesprochene-nachrichten/a-16764111'
p238
aS'http://www.dw.de/22042013-langsam-gesprochene-nachrichten/a-16761400'
p239
aS'http://www.dw.de/19042013-langsam-gesprochene-nachrichten/a-16756479'
p240
aS'http://www.dw.de/18042013-langsam-gesprochene-nachrichten/a-16754256'
p241
aS'http://www.dw.de/17042013-langsam-gesprochene-nachrichten/a-16749208'
p242
aS'http://www.dw.de/16042013-langsam-gesprochene-nachrichten/a-16746493'
p243
aS'http://www.dw.de/15042013-langsam-gesprochene-nachrichten/a-16744110'
p244
aS'http://www.dw.de/12042013-langsam-gesprochene-nachrichten/a-16739713'
p245
aS'http://www.dw.de/11042013-langsam-gesprochene-nachrichten/a-16737242'
p246
aS'http://www.dw.de/10042013-langsam-gesprochene-nachrichten/a-16732398'
p247
aS'http://www.dw.de/09042013-langsam-gesprochene-nachrichten/a-16730089'
p248
aS'http://www.dw.de/08042013-langsam-gesprochene-nachrichten/a-16727483'
p249
aS'http://www.dw.de/05042013-langsam-gesprochene-nachrichten/a-16722937'
p250
aS'http://www.dw.de/04042013-langsam-gesprochene-nachrichten/a-16718870'
p251
aS'http://www.dw.de/03042013-langsam-gesprochene-nachrichten/a-16715756'
p252
aS'http://www.dw.de/02042013-langsam-gesprochene-nachrichten/a-16713422'
p253
aS'http://www.dw.de/01042013-langsam-gesprochene-nachrichten/a-16712384'
p254
aS'http://www.dw.de/29032013-langsam-gesprochene-nachrichten/a-16709297'
p255
aS'http://www.dw.de/28032013-langsam-gesprochene-nachrichten/a-16703880'
p256
aS'http://www.dw.de/27032013-langsam-gesprochene-nachrichten/a-16701551'
p257
aS'http://www.dw.de/26032013-langsam-gesprochene-nachrichten/a-16699083'
p258
aS'http://www.dw.de/25032013-langsam-gesprochene-nachrichten/a-16696906'
p259
aS'http://www.dw.de/22032013-langsam-gesprochene-nachrichten/a-16692764'
p260
aS'http://www.dw.de/21032013-langsam-gesprochene-nachrichten/a-16687897'
p261
aS'http://www.dw.de/20032013-langsam-gesprochene-nachrichten/a-16685071'
p262
aS'http://www.dw.de/19032013-langsam-gesprochene-nachrichten/a-16682907'
p263
aS'http://www.dw.de/18032013-langsam-gesprochene-nachrichten/a-16680695'
p264
aS'http://www.dw.de/15032013-langsam-gesprochene-nachrichten/a-16676697'
p265
aS'http://www.dw.de/14032013-langsam-gesprochene-nachrichten/a-16672052'
p266
aS'http://www.dw.de/13032013-langsam-gesprochene-nachrichten/a-16667256'
p267
aS'http://www.dw.de/12032013-langsam-gesprochene-nachrichten/a-16665069'
p268
aS'http://www.dw.de/11032013-langsam-gesprochene-nachrichten/a-16663013'
p269
aS'http://www.dw.de/08032013-langsam-gesprochene-nachrichten/a-16657503'
p270
aS'http://www.dw.de/07032013-langsam-gesprochene-nachrichten/a-16654648'
p271
aS'http://www.dw.de/06032013-langsam-gesprochene-nachrichten/a-16649140'
p272
aS'http://www.dw.de/05032013-langsam-gesprochene-nachrichten/a-16646412'
p273
aS'http://www.dw.de/04032013-langsam-gesprochene-nachrichten/a-16643491'
p274
aS'http://www.dw.de/01032013-langsam-gesprochene-nachrichten/a-16638701'
p275
aS'http://www.dw.de/28022013-langsam-gesprochene-nachrichten/a-16634840'
p276
aS'http://www.dw.de/27022013-langsam-gesprochene-nachrichten/a-16630803'
p277
aS'http://www.dw.de/26022013-langsam-gesprochene-nachrichten/a-16628427'
p278
aS'http://www.dw.de/25022013-langsam-gesprochene-nachrichten/a-16625754'
p279
aS'http://www.dw.de/22022013-langsam-gesprochene-nachrichten/a-16620753'
p280
aS'http://www.dw.de/21022013-langsam-gesprochene-nachrichten/a-16616149'
p281
aS'http://www.dw.de/20022013-langsam-gesprochene-nachrichten/a-16612854'
p282
aS'http://www.dw.de/19022013-langsam-gesprochene-nachrichten/a-16609710'
p283
aS'http://www.dw.de/18022013-langsam-gesprochene-nachrichten/a-16605930'
p284
aS'http://www.dw.de/15022013-langsam-gesprochene-nachrichten/a-16601134'
p285
aS'http://www.dw.de/14022013-langsam-gesprochene-nachrichten/a-16598045'
p286
aS'http://www.dw.de/13022013-langsam-gesprochene-nachrichten/a-16595693'
p287
aS'http://www.dw.de/12022013-langsam-gesprochene-nachrichten/a-16593075'
p288
aS'http://www.dw.de/11022013-langsam-gesprochene-nachrichten/a-16590161'
p289
aS'http://www.dw.de/08022013-langsam-gesprochene-nachrichten/a-16585571'
p290
aS'http://www.dw.de/07022013-langsam-gesprochene-nachrichten/a-16583047'
p291
aS'http://www.dw.de/06022013-langsam-gesprochene-nachrichten/a-16578164'
p292
aS'http://www.dw.de/05022013-langsam-gesprochene-nachrichten/a-16575920'
p293
aS'http://www.dw.de/04022013-langsam-gesprochene-nachrichten/a-16573453'
p294
aS'http://www.dw.de/01022013-langsam-gesprochene-nachrichten/a-16568443'
p295
aS'http://www.dw.de/31012013-langsam-gesprochene-nachrichten/a-16563740'
p296
aS'http://www.dw.de/30012013-langsam-gesprochene-nachrichten/a-16559768'
p297
aS'http://www.dw.de/29012013-langsam-gesprochene-nachrichten/a-16557317'
p298
aS'http://www.dw.de/28012013-langsam-gesprochene-nachrichten/a-16554674'
p299
aS'http://www.dw.de/25012013-langsam-gesprochene-nachrichten/a-16549378'
p300
aS'http://www.dw.de/24012013-langsam-gesprochene-nachrichten/a-16547207'
p301
aS'http://www.dw.de/23012013-langsam-gesprochene-nachrichten/a-16544763'
p302
aS'http://www.dw.de/22012013-langsam-gesprochene-nachrichten/a-16539708'
p303
aS'http://www.dw.de/21012013-langsam-gesprochene-nachrichten/a-16536919'
p304
aS'http://www.dw.de/18012013-langsam-gesprochene-nachrichten/a-16531970'
p305
aS'http://www.dw.de/17012013-langsam-gesprochene-nachrichten/a-16527293'
p306
aS'http://www.dw.de/16012013-langsam-gesprochene-nachrichten/a-16524279'
p307
aS'http://www.dw.de/15012013-langsam-gesprochene-nachrichten/a-16521974'
p308
aS'http://www.dw.de/14012013-langsam-gesprochene-nachrichten/a-16519200'
p309
aS'http://www.dw.de/11012013-langsam-gesprochene-nachrichten/a-16513165'
p310
aS'http://www.dw.de/10012013-langsam-gesprochene-nachrichten/a-16509864'
p311
aS'http://www.dw.de/09012013-langsam-gesprochene-nachrichten/a-16507396'
p312
aS'http://www.dw.de/08012013-langsam-gesprochene-nachrichten/a-16505105'
p313
aS'http://www.dw.de/07012013-langsam-gesprochene-nachrichten/a-16502475'
p314
aS'http://www.dw.de/04012013-langsam-gesprochene-nachrichten/a-16497031'
p315
aS'http://www.dw.de/03012013-langsam-gesprochene-nachrichten/a-16493830'
p316
aS'http://www.dw.de/02012013-langsam-gesprochene-nachrichten/a-16491446'
p317
aS'http://www.dw.de/01012013-langsam-gesprochene-nachrichten/a-16490146'
p318
aS'http://www.dw.de/31122012-langsam-gesprochene-nachrichten/a-16488851'
p319
aS'http://www.dw.de/30122012-langsam-gesprochene-nachrichten/a-16487992'
p320
aS'http://www.dw.de/29122012-langsam-gesprochene-nachrichten/a-16486943'
p321
aS'http://www.dw.de/28122012-langsam-gesprochene-nachrichten/a-16483933'
p322
aS'http://www.dw.de/27122012-langsam-gesprochene-nachrichten/a-16480738'
p323
aS'http://www.dw.de/26122012-langsam-gesprochene-nachrichten/a-16479486'
p324
aS'http://www.dw.de/25122012-langsam-gesprochene-nachrichten/a-16478144'
p325
aS'http://www.dw.de/24122012-langsam-gesprochene-nachrichten/a-16476968'
p326
aS'http://www.dw.de/23122012-langsam-gesprochene-nachrichten/a-16476075'
p327
aS'http://www.dw.de/22122012-langsam-gesprochene-nachrichten/a-16474982'
p328
aS'http://www.dw.de/21122012-langsam-gesprochene-nachrichten/a-16472922'
p329
aS'http://www.dw.de/20122012-langsam-gesprochene-nachrichten/a-16467786'
p330
aS'http://www.dw.de/19122012-langsam-gesprochene-nachrichten/a-16465032'
p331
aS'http://www.dw.de/18122012-langsam-gesprochene-nachrichten/a-16461553'
p332
aS'http://www.dw.de/17122012-langsam-gesprochene-nachrichten/a-16458961'
p333
aS'http://www.dw.de/16122012-langsam-gesprochene-nachrichten/a-16457592'
p334
aS'http://www.dw.de/15122012-langsam-gesprochene-nachrichten/a-16456380'
p335
aS'http://www.dw.de/14122012-langsam-gesprochene-nachrichten/a-16453215'
p336
aS'http://www.dw.de/13122012-langsam-gesprochene-nachrichten/a-16450486'
p337
aS'http://www.dw.de/12122012-langsam-gesprochene-nachrichten/a-16445835'
p338
aS'http://www.dw.de/11122012-langsam-gesprochene-nachrichten/a-16443458'
p339
aS'http://www.dw.de/10122012-langsam-gesprochene-nachrichten/a-16440780'
p340
aS'http://www.dw.de/09122012-langsam-gesprochene-nachrichten/a-16439652'
p341
aS'http://www.dw.de/08122012-langsam-gesprochene-nachrichten/a-16438693'
p342
aS'http://www.dw.de/07122012-langsam-gesprochene-nachrichten/a-16434619'
p343
aS'http://www.dw.de/06122012-langsam-gesprochene-nachrichten/a-16431420'
p344
aS'http://www.dw.de/05122012-langsam-gesprochene-nachrichten/a-16429078'
p345
aS'http://www.dw.de/04122012-langsam-gesprochene-nachrichten/a-16426687'
p346
aS'http://www.dw.de/03122012-langsam-gesprochene-nachrichten/a-16424115'
p347
aS'http://www.dw.de/02122012-langsam-gesprochene-nachrichten/a-16423004'
p348
aS'http://www.dw.de/01122012-langsam-gesprochene-nachrichten/a-16421736'
p349
aS'http://www.dw.de/30112012-langsam-gesprochene-nachrichten/a-16417991'
p350
aS'http://www.dw.de/29112012-langsam-gesprochene-nachrichten/a-16415319'
p351
aS'http://www.dw.de/28112012-langsam-gesprochene-nachrichten/a-16409927'
p352
aS'http://www.dw.de/27112012-langsam-gesprochene-nachrichten/a-16407556'
p353
aS'http://www.dw.de/26112012-langsam-gesprochene-nachrichten/a-16405133'
p354
aS'http://www.dw.de/25112012-langsam-gesprochene-nachrichten/a-16404209'
p355
aS'http://www.dw.de/24112012-langsam-gesprochene-nachrichten/a-16402991'
p356
aS'http://www.dw.de/23112012-langsam-gesprochene-nachrichten/a-16400412'
p357
aS'http://www.dw.de/22112012-langsam-gesprochene-nachrichten/a-16398024'
p358
aS'http://www.dw.de/21112012-langsam-gesprochene-nachrichten/a-16395207'
p359
aS'http://www.dw.de/20112012-langsam-gesprochene-nachrichten/a-16391278'
p360
aS'http://www.dw.de/19112012-langsam-gesprochene-nachrichten/a-16388792'
p361
aS'http://www.dw.de/18112012-langsam-gesprochene-nachrichten/a-16387643'
p362
aS'http://www.dw.de/17112012-langsam-gesprochene-nachrichten/a-16386511'
p363
aS'http://www.dw.de/16112012-langsam-gesprochene-nachrichten/a-16384116'
p364
aS'http://www.dw.de/15112012-langsam-gesprochene-nachrichten/a-16381372'
p365
aS'http://www.dw.de/14112012-langsam-gesprochene-nachrichten/a-16378911'
p366
aS'http://www.dw.de/13112012-langsam-gesprochene-nachrichten/a-16374172'
p367
aS'http://www.dw.de/12112012-langsam-gesprochene-nachrichten/a-16371843'
p368
aS'http://www.dw.de/11112012-langsam-gesprochene-nachrichten/a-16370786'
p369
aS'http://www.dw.de/10112012-langsam-gesprochene-nachrichten/a-16369613'
p370
aS'http://www.dw.de/09112012-langsam-gesprochene-nachrichten/a-16367485'
p371
aS'http://www.dw.de/08112012-langsam-gesprochene-nachrichten/a-16365244'
p372
aS'http://www.dw.de/07112012-langsam-gesprochene-nachrichten/a-16360273'
p373
aS'http://www.dw.de/06112012-langsam-gesprochene-nachrichten/a-16358002'
p374
aS'http://www.dw.de/05112012-langsam-gesprochene-nachrichten/a-16355552'
p375
aS'http://www.dw.de/04112012-langsam-gesprochene-nachrichten/a-16354551'
p376
aS'http://www.dw.de/03112012-langsam-gesprochene-nachrichten/a-16353333'
p377
aS'http://www.dw.de/02112012-langsam-gesprochene-nachrichten/a-16351226'
p378
aS'http://www.dw.de/01112012-langsam-gesprochene-nachrichten/a-16347772'
p379
aS'http://www.dw.de/31102012-langsam-gesprochene-nachrichten/a-16344229'
p380
aS'http://www.dw.de/30102012-langsam-gesprochene-nachrichten/a-16342085'
p381
aS'http://www.dw.de/29102012-langsam-gesprochene-nachrichten/a-16339374'
p382
aS'http://www.dw.de/28102012-langsam-gesprochene-nachrichten/a-16338373'
p383
aS'http://www.dw.de/27102012-langsam-gesprochene-nachrichten/a-16337156'
p384
aS'http://www.dw.de/26102012-langsam-gesprochene-nachrichten/a-16334905'
p385
aS'http://www.dw.de/25102012-langsam-gesprochene-nachrichten/a-16329581'
p386
aS'http://www.dw.de/24102012-langsam-gesprochene-nachrichten/a-16327369'
p387
aS'http://www.dw.de/23102012-langsam-gesprochene-nachrichten/a-16324859'
p388
aS'http://www.dw.de/22102012-langsam-gesprochene-nachrichten/a-16322627'
p389
aS'http://www.dw.de/21102012-langsam-gesprochene-nachrichten/a-16321590'
p390
aS'http://www.dw.de/20102012-langsam-gesprochene-nachrichten/a-16320542'
p391
aS'http://www.dw.de/19102012-langsam-gesprochene-nachrichten/a-16317818'
p392
aS'http://www.dw.de/18102012-langsam-gesprochene-nachrichten/a-16313254'
p393
aS'http://www.dw.de/17102012-langsam-gesprochene-nachrichten/a-16310974'
p394
aS'http://www.dw.de/16102012-langsam-gesprochene-nachrichten/a-16308595'
p395
aS'http://www.dw.de/15102012-langsam-gesprochene-nachrichten/a-16306308'
p396
aS'http://www.dw.de/14102012-langsam-gesprochene-nachrichten/a-16305325'
p397
aS'http://www.dw.de/13102012-langsam-gesprochene-nachrichten/a-16304241'
p398
aS'http://www.dw.de/12102012-langsam-gesprochene-nachrichten/a-16301324'
p399
aS'http://www.dw.de/11102012-langsam-gesprochene-nachrichten/a-16297454'
p400
aS'http://www.dw.de/10102012-langsam-gesprochene-nachrichten/a-16295487'
p401
aS'http://www.dw.de/09102012-langsam-gesprochene-nachrichten/a-16293391'
p402
aS'http://www.dw.de/08102012-langsam-gesprochene-nachrichten/a-16291277'
p403
aS'http://www.dw.de/07102012-langsam-gesprochene-nachrichten/a-16290285'
p404
aS'http://www.dw.de/06102012-langsam-gesprochene-nachrichten/a-16289126'
p405
aS'http://www.dw.de/05102012-langsam-gesprochene-nachrichten/a-16286864'
p406
aS'http://www.dw.de/04102012-langsam-gesprochene-nachrichten/a-16281463'
p407
aS'http://www.dw.de/03102012-langsam-gesprochene-nachrichten/a-16280220'
p408
aS'http://www.dw.de/02102012-langsam-gesprochene-nachrichten/a-16277707'
p409
aS'http://www.dw.de/01102012-langsam-gesprochene-nachrichten/a-16275308'
p410
aS'http://www.dw.de/30092012-langsam-gesprochene-nachrichten/a-16274342'
p411
aS'http://www.dw.de/29092012-langsam-gesprochene-nachrichten/a-16273114'
p412
aS'http://www.dw.de/28092012-langsam-gesprochene-nachrichten/a-16271318'
p413
aS'http://www.dw.de/27092012-langsam-gesprochene-nachrichten/a-16268562'
p414
aS'http://www.dw.de/26092012-langsam-gesprochene-nachrichten/a-16262652'
p415
aS'http://www.dw.de/25092012-langsam-gesprochene-nachrichten/a-16258647'
p416
aS'http://www.dw.de/24092012-langsam-gesprochene-nachrichten/a-16256959'
p417
aS'http://www.dw.de/23092012-langsam-gesprochene-nachrichten/a-16255911'
p418
aS'http://www.dw.de/22092012-langsam-gesprochene-nachrichten/a-16255030'
p419
aS'http://www.dw.de/21092012-langsam-gesprochene-nachrichten/a-16253218'
p420
aS'http://www.dw.de/20092012-langsam-gesprochene-nachrichten/a-16251623'
p421
aS'http://www.dw.de/19092012-langsam-gesprochene-nachrichten/a-16250188'
p422
aS'http://www.dw.de/18092012-langsam-gesprochene-nachrichten/a-16248100'
p423
aS'http://www.dw.de/17092012-langsam-gesprochene-nachrichten/a-16245510'
p424
aS'http://www.dw.de/16092012-langsam-gesprochene-nachrichten/a-16244269'
p425
aS'http://www.dw.de/15092012-langsam-gesprochene-nachrichten/a-16243264'
p426
aS'http://www.dw.de/14092012-langsam-gesprochene-nachrichten/a-16240233'
p427
aS'http://www.dw.de/13092012-langsam-gesprochene-nachrichten/a-16236138'
p428
aS'http://www.dw.de/12092012-langsam-gesprochene-nachrichten/a-16233956'
p429
aS'http://www.dw.de/11092012-langsam-gesprochene-nachrichten/a-16231603'
p430
aS'http://www.dw.de/10092012-langsam-gesprochene-nachrichten/a-16228983'
p431
aS'http://www.dw.de/09092012-langsam-gesprochene-nachrichten/a-16227960'
p432
aS'http://www.dw.de/08092012-langsam-gesprochene-nachrichten/a-16226966'
p433
aS'http://www.dw.de/07092012-langsam-gesprochene-nachrichten/a-16224852'
p434
aS'http://www.dw.de/06092012-langsam-gesprochene-nachrichten/a-16222578'
p435
aS'http://www.dw.de/05092012-langsam-gesprochene-nachrichten/a-16220851'
p436
aS'http://www.dw.de/04092012-langsam-gesprochene-nachrichten/a-16215773'
p437
aS'http://www.dw.de/03092012-langsam-gesprochene-nachrichten/a-16215797'
p438
aS'http://www.dw.de/02092012-langsam-gesprochene-nachrichten/a-16214704'
p439
aS'http://www.dw.de/01092012-langsam-gesprochene-nachrichten/a-16213629'
p440
aS'http://www.dw.de/31082012-langsam-gesprochene-nachrichten/a-16211566'
p441
aS'http://www.dw.de/30082012-langsam-gesprochene-nachrichten/a-16206462'
p442
aS'http://www.dw.de/29082012-langsam-gesprochene-nachrichten/a-16202854'
p443
aS'http://www.dw.de/28082012-langsam-gesprochene-nachrichten/a-16197997'
p444
aS'http://www.dw.de/27082012-langsam-gesprochene-nachrichten/a-16195287'
p445
aS'http://www.dw.de/26082012-langsam-gesprochene-nachrichten/a-16194335'
p446
aS'http://www.dw.de/25082012-langsam-gesprochene-nachrichten/a-16193263'
p447
aS'http://www.dw.de/24082012-langsam-gesprochene-nachrichten/a-16190567'
p448
aS'http://www.dw.de/23082012-langsam-gesprochene-nachrichten/a-16188457'
p449
aS'http://www.dw.de/22082012-langsam-gesprochene-nachrichten/a-16183251'
p450
aS'http://www.dw.de/21082012-langsam-gesprochene-nachrichten/a-16181208'
p451
aS'http://www.dw.de/20082012-langsam-gesprochene-nachrichten/a-16178706'
p452
aS'http://www.dw.de/19082012-langsam-gesprochene-nachrichten/a-16177604'
p453
aS'http://www.dw.de/18082012-langsam-gesprochene-nachrichten/a-16176511'
p454
aS'http://www.dw.de/17082012-langsam-gesprochene-nachrichten/a-16174062'
p455
aS'http://www.dw.de/16082012-langsam-gesprochene-nachrichten/a-16169734'
p456
aS'http://www.dw.de/15082012-langsam-gesprochene-nachrichten/a-16166865'
p457
aS'http://www.dw.de/14082012-langsam-gesprochene-nachrichten/a-16164712'
p458
aS'http://www.dw.de/13082012-langsam-gesprochene-nachrichten/a-16162326'
p459
aS'http://www.dw.de/12082012-langsam-gesprochene-nachrichten/a-16161412'
p460
aS'http://www.dw.de/11082012-langsam-gesprochene-nachrichten/a-16160046'
p461
aS'http://www.dw.de/10082012-langsam-gesprochene-nachrichten/a-16158019'
p462
aS'http://www.dw.de/09082012-langsam-gesprochene-nachrichten/a-16153082'
p463
aS'http://www.dw.de/08082012-langsam-gesprochene-nachrichten/a-16151026'
p464
aS'http://www.dw.de/07082012-langsam-gesprochene-nachrichten/a-16148659'
p465
aS'http://www.dw.de/06082012-langsam-gesprochene-nachrichten/a-16146656'
p466
aS'http://www.dw.de/05082012-langsam-gesprochene-nachrichten/a-16145575'
p467
aS'http://www.dw.de/04082012-langsam-gesprochene-nachrichten/a-16144372'
p468
aS'http://www.dw.de/03082012-langsam-gesprochene-nachrichten/a-16142093'
p469
aS'http://www.dw.de/02082012-langsam-gesprochene-nachrichten/a-16138731'
p470
aS'http://www.dw.de/01082012-langsam-gesprochene-nachrichten/a-16135286'
p471
aS'http://www.dw.de/31072012-langsam-gesprochene-nachrichten/a-16133008'
p472
aS'http://www.dw.de/30072012-langsam-gesprochene-nachrichten/a-16130966'
p473
aS'http://www.dw.de/29072012-langsam-gesprochene-nachrichten/a-16129829'
p474
aS'http://www.dw.de/28072012-langsam-gesprochene-nachrichten/a-16128792'
p475
aS'http://www.dw.de/27072012-langsam-gesprochene-nachrichten/a-16126665'
p476
aS'http://www.dw.de/26072012-langsam-gesprochene-nachrichten/a-16124664'
p477
aS'http://www.dw.de/25072012-langsam-gesprochene-nachrichten/a-16122963'
p478
aS'http://www.dw.de/24072012-langsam-gesprochene-nachrichten/a-16121201'
p479
aS'http://www.dw.de/23072012-langsam-gesprochene-nachrichten/a-16119267'
p480
aS'http://www.dw.de/22072012-langsam-gesprochene-nachrichten/a-16117883'
p481
aS'http://www.dw.de/21072012-langsam-gesprochene-nachrichten/a-16116892'
p482
aS'http://www.dw.de/20072012-langsam-gesprochene-nachrichten/a-16114580'
p483
aS'http://www.dw.de/19072012-langsam-gesprochene-nachrichten/a-16109217'
p484
aS'http://www.dw.de/18072012-langsam-gesprochene-nachrichten/a-16104063'
p485
aS'http://www.dw.de/17072012-langsam-gesprochene-nachrichten/a-16102174'
p486
aS'http://www.dw.de/16072012-langsam-gesprochene-nachrichten/a-16099598'
p487
aS'http://www.dw.de/15072012-langsam-gesprochene-nachrichten/a-16098656'
p488
aS'http://www.dw.de/14072012-langsam-gesprochene-nachrichten/a-16097663'
p489
aS'http://www.dw.de/13072012-langsam-gesprochene-nachrichten/a-16094958'
p490
aS'http://www.dw.de/12072012-langsam-gesprochene-nachrichten/a-16090057'
p491
aS'http://www.dw.de/11072012-langsam-gesprochene-nachrichten/a-16087554'
p492
aS'http://www.dw.de/10072012-langsam-gesprochene-nachrichten/a-16085316'
p493
aS'http://www.dw.de/09072012-langsam-gesprochene-nachrichten/a-16082918'
p494
aS'http://www.dw.de/08072012-langsam-gesprochene-nachrichten/a-16081699'
p495
aS'http://www.dw.de/07072012-langsam-gesprochene-nachrichten/a-16080484'
p496
aS'http://www.dw.de/06072012-langsam-gesprochene-nachrichten/a-16076756'
p497
aS'http://www.dw.de/05072012-langsam-gesprochene-nachrichten/a-16073617'
p498
aS'http://www.dw.de/04072012-langsam-gesprochene-nachrichten/a-16071400'
p499
aS'http://www.dw.de/03072012-langsam-gesprochene-nachrichten/a-16069131'
p500
aS'http://www.dw.de/02072012-langsam-gesprochene-nachrichten/a-16064750'
p501
aS'http://www.dw.de/01072012-langsam-gesprochene-nachrichten/a-16063726'
p502
aS'http://www.dw.de/30062012-langsam-gesprochene-nachrichten/a-16062367'
p503
aS'http://www.dw.de/29062012-langsam-gesprochene-nachrichten/a-16060096'
p504
aS'http://www.dw.de/28062012-langsam-gesprochene-nachrichten/a-16056701'
p505
aS'http://www.dw.de/27062012-langsam-gesprochene-nachrichten/a-16052219'
p506
aS'http://www.dw.de/26062012-langsam-gesprochene-nachrichten/a-16050116'
p507
aS'http://www.dw.de/25062012-langsam-gesprochene-nachrichten/a-16048003'
p508
aS'http://www.dw.de/24062012-langsam-gesprochene-nachrichten/a-16046853'
p509
aS'http://www.dw.de/23062012-langsam-gesprochene-nachrichten/a-16045698'
p510
aS'http://www.dw.de/22062012-langsam-gesprochene-nachrichten/a-16042776'
p511
aS'http://www.dw.de/21062012-langsam-gesprochene-nachrichten/a-16040730'
p512
aS'http://www.dw.de/20062012-langsam-gesprochene-nachrichten/a-16038075'
p513
aS'http://www.dw.de/19062012-langsam-gesprochene-nachrichten/a-16035576'
p514
aS'http://www.dw.de/18062012-langsam-gesprochene-nachrichten/a-16033186'
p515
aS'http://www.dw.de/17062012-langsam-gesprochene-nachrichten/a-16032018'
p516
aS'http://www.dw.de/16062012-langsam-gesprochene-nachrichten/a-16031398'
p517
aS'http://www.dw.de/15062012-langsam-gesprochene-nachrichten/a-16028271'
p518
aS'http://www.dw.de/14062012-langsam-gesprochene-nachrichten/a-16023095'
p519
aS'http://www.dw.de/13062012-langsam-gesprochene-nachrichten/a-16018457'
p520
aS'http://www.dw.de/12062012-langsam-gesprochene-nachrichten/a-16015930'
p521
aS'http://www.dw.de/11062012-langsam-gesprochene-nachrichten/a-16013572'
p522
aS'http://www.dw.de/10062012-langsam-gesprochene-nachrichten/a-16012506'
p523
aS'http://www.dw.de/09062012-langsam-gesprochene-nachrichten/a-16011126'
p524
aS'http://www.dw.de/08062012-langsam-gesprochene-nachrichten/a-16008240'
p525
aS'http://www.dw.de/07062012-langsam-gesprochene-nachrichten/a-16006118'
p526
aS'http://www.dw.de/06062012-langsam-gesprochene-nachrichten/a-16001240'
p527
aS'http://www.dw.de/05062012-langsam-gesprochene-nachrichten/a-15998999'
p528
aS'http://www.dw.de/04062012-langsam-gesprochene-nachrichten/a-15996568'
p529
aS'http://www.dw.de/03062012-langsam-gesprochene-nachrichten/a-15995381'
p530
aS'http://www.dw.de/02062012-langsam-gesprochene-nachrichten/a-15994258'
p531
aS'http://www.dw.de/01062012-langsam-gesprochene-nachrichten/a-15991910'
p532
aS'http://www.dw.de/31052012-langsam-gesprochene-nachrichten/a-15987837'
p533
aS'http://www.dw.de/30052012-langsam-gesprochene-nachrichten/a-15984424'
p534
aS'http://www.dw.de/29052012-langsam-gesprochene-nachrichten/a-15982325'
p535
aS'http://www.dw.de/28052012-langsam-gesprochene-nachrichten/a-15981107'
p536
aS'http://www.dw.de/27052012-langsam-gesprochene-nachrichten/a-15980047'
p537
aS'http://www.dw.de/26052012-langsam-gesprochene-nachrichten/a-15978988'
p538
aS'http://www.dw.de/25052012-langsam-gesprochene-nachrichten/a-15976493'
p539
aS'http://www.dw.de/24052012-langsam-gesprochene-nachrichten/a-15973526'
p540
aS'http://www.dw.de/23052012-langsam-gesprochene-nachrichten/a-15969400'
p541
aS'http://www.dw.de/22052012-langsam-gesprochene-nachrichten/a-15967028'
p542
aS'http://www.dw.de/21052012-langsam-gesprochene-nachrichten/a-15965034'
p543
aS'http://www.dw.de/20052012-langsam-gesprochene-nachrichten/a-15963878'
p544
aS'http://www.dw.de/19052012-langsam-gesprochene-nachrichten/a-15962781'
p545
aS'http://www.dw.de/18052012-langsam-gesprochene-nachrichten/a-15957465'
p546
aS'http://www.dw.de/17052012-langsam-gesprochene-nachrichten/a-15956181'
p547
aS'http://www.dw.de/16052012-langsam-gesprochene-nachrichten/a-15953676'
p548
aS'http://www.dw.de/15052012-langsam-gesprochene-nachrichten/a-15951331'
p549
aS'http://www.dw.de/14052012-langsam-gesprochene-nachrichten/a-15948086'
p550
aS'http://www.dw.de/13052012-langsam-gesprochene-nachrichten/a-15947027'
p551
aS'http://www.dw.de/12052012-langsam-gesprochene-nachrichten/a-15945924'
p552
aS'http://www.dw.de/11052012-langsam-gesprochene-nachrichten/a-15943556'
p553
aS'http://www.dw.de/10052012-langsam-gesprochene-nachrichten/a-15939649'
p554
aS'http://www.dw.de/09052012-langsam-gesprochene-nachrichten/a-15937493'
p555
aS'http://www.dw.de/08052012-langsam-gesprochene-nachrichten/a-15935303'
p556
aS'http://www.dw.de/07052012-langsam-gesprochene-nachrichten/a-15933364'
p557
aS'http://www.dw.de/06052012-langsam-gesprochene-nachrichten/a-15932354'
p558
aS'http://www.dw.de/05052012-langsam-gesprochene-nachrichten/a-15931174'
p559
aS'http://www.dw.de/04052012-langsam-gesprochene-nachrichten/a-15927265'
p560
aS'http://www.dw.de/03052012-langsam-gesprochene-nachrichten/a-15923529'
p561
aS'http://www.dw.de/02052012-langsam-gesprochene-nachrichten/a-15921252'
p562
aS'http://www.dw.de/01052012-langsam-gesprochene-nachrichten/a-15919756'
p563
aS'http://www.dw.de/30042012-langsam-gesprochene-nachrichten/a-15917669'
p564
aS'http://www.dw.de/29042012-langsam-gesprochene-nachrichten/a-15916690'
p565
aS'http://www.dw.de/28042012-langsam-gesprochene-nachrichten/a-15915606'
p566
aS'http://www.dw.de/27042012-langsam-gesprochene-nachrichten/a-15912985'
p567
aS'http://www.dw.de/26042012-langsam-gesprochene-nachrichten/a-15910858'
p568
aS'http://www.dw.de/25042012-langsam-gesprochene-nachrichten/a-15908346'
p569
aS'http://www.dw.de/24042012-langsam-gesprochene-nachrichten/a-15906408'
p570
aS'http://www.dw.de/23042012-langsam-gesprochene-nachrichten/a-15904037'
p571
aS'http://www.dw.de/22042012-langsam-gesprochene-nachrichten/a-15902973'
p572
aS'http://www.dw.de/21042012-langsam-gesprochene-nachrichten/a-15901860'
p573
aS'http://www.dw.de/20042012-langsam-gesprochene-nachrichten/a-15899151'
p574
aS'http://www.dw.de/19042012-langsam-gesprochene-nachrichten/a-15894349'
p575
aS'http://www.dw.de/18042012-langsam-gesprochene-nachrichten/a-15889414'
p576
aS'http://www.dw.de/17042012-langsam-gesprochene-nachrichten/a-15887445'
p577
aS'http://www.dw.de/16042012-langsam-gesprochene-nachrichten/a-15885118'
p578
aS'http://www.dw.de/15042012-langsam-gesprochene-nachrichten/a-15884063'
p579
aS'http://www.dw.de/14042012-langsam-gesprochene-nachrichten/a-15883023'
p580
aS'http://www.dw.de/13042012-langsam-gesprochene-nachrichten/a-15880711'
p581
aS'http://www.dw.de/12042012-langsam-gesprochene-nachrichten/a-15875677'
p582
aS'http://www.dw.de/11042012-langsam-gesprochene-nachrichten/a-15873404'
p583
aS'http://www.dw.de/10042012-langsam-gesprochene-nachrichten/a-15868284'
p584
aS'http://www.dw.de/09042012-langsam-gesprochene-nachrichten/a-15866950'
p585
aS'http://www.dw.de/08042012-langsam-gesprochene-nachrichten/a-15866005'
p586
aS'http://www.dw.de/07042012-langsam-gesprochene-nachrichten/a-15864854'
p587
aS'http://www.dw.de/06042012-langsam-gesprochene-nachrichten/a-15863609'
p588
aS'http://www.dw.de/05042012-langsam-gesprochene-nachrichten/a-15860355'
p589
aS'http://www.dw.de/04042012-langsam-gesprochene-nachrichten/a-15857961'
p590
aS'http://www.dw.de/03042012-langsam-gesprochene-nachrichten/a-15855968'
p591
aS'http://www.dw.de/02042012-langsam-gesprochene-nachrichten/a-15853561'
p592
aS'http://www.dw.de/01042012-langsam-gesprochene-nachrichten/a-15852615'
p593
aS'http://www.dw.de/31032012-langsam-gesprochene-nachrichten/a-15851498'
p594
aS'http://www.dw.de/30032012-langsam-gesprochene-nachrichten/a-15849153'
p595
aS'http://www.dw.de/29032012-langsam-gesprochene-nachrichten/a-15845891'
p596
aS'http://www.dw.de/28032012-langsam-gesprochene-nachrichten/a-15841941'
p597
aS'http://www.dw.de/27032012-langsam-gesprochene-nachrichten/a-15839891'
p598
aS'http://www.dw.de/26032012-langsam-gesprochene-nachrichten/a-15837629'
p599
aS'http://www.dw.de/25032012-langsam-gesprochene-nachrichten/a-15834594'
p600
aS'http://www.dw.de/24032012-langsam-gesprochene-nachrichten/a-15833434'
p601
aS'http://www.dw.de/23032012-langsam-gesprochene-nachrichten/a-15828476'
p602
aS'http://www.dw.de/22032012-langsam-gesprochene-nachrichten/a-15825687'
p603
aS'http://www.dw.de/21032012-langsam-gesprochene-nachrichten/a-15823389'
p604
aS'http://www.dw.de/20032012-langsam-gesprochene-nachrichten/a-15820785'
p605
aS'http://www.dw.de/19032012-langsam-gesprochene-nachrichten/a-15816774'
p606
aS'http://www.dw.de/18032012-langsam-gesprochene-nachrichten/a-15815577'
p607
aS'http://www.dw.de/17032012-langsam-gesprochene-nachrichten/a-15814379'
p608
aS'http://www.dw.de/16032012-langsam-gesprochene-nachrichten/a-15812277'
p609
aS'http://www.dw.de/15032012-langsam-gesprochene-nachrichten/a-15809790'
p610
aS'http://www.dw.de/14032012-langsam-gesprochene-nachrichten/a-15807616'
p611
aS'http://www.dw.de/13032012-langsam-gesprochene-nachrichten/a-15805667'
p612
aS'http://www.dw.de/12032012-langsam-gesprochene-nachrichten/a-15803489'
p613
aS'http://www.dw.de/11032012-langsam-gesprochene-nachrichten/a-15802462'
p614
aS'http://www.dw.de/10032012-langsam-gesprochene-nachrichten/a-15801390'
p615
aS'http://www.dw.de/09032012-langsam-gesprochene-nachrichten/a-15798834'
p616
aS'http://www.dw.de/08032012-langsam-gesprochene-nachrichten/a-15795250'
p617
aS'http://www.dw.de/07032012-langsam-gesprochene-nachrichten/a-15792014'
p618
aS'http://www.dw.de/06032012-langsam-gesprochene-nachrichten/a-15789606'
p619
aS'http://www.dw.de/05032012-langsam-gesprochene-nachrichten/a-15787209'
p620
aS'http://www.dw.de/04032012-langsam-gesprochene-nachrichten/a-15786242'
p621
aS'http://www.dw.de/03032012-langsam-gesprochene-nachrichten/a-15784982'
p622
aS'http://www.dw.de/02032012-langsam-gesprochene-nachrichten/a-15779491'
p623
aS'http://www.dw.de/01032012-langsam-gesprochene-nachrichten/a-15777015'
p624
aS'http://www.dw.de/29022012-langsam-gesprochene-nachrichten/a-15774967'
p625
aS'http://www.dw.de/28022012-langsam-gesprochene-nachrichten/a-15773608'
p626
aS'http://www.dw.de/27022012-langsam-gesprochene-nachrichten/a-15770284'
p627
aS'http://www.dw.de/26022012-langsam-gesprochene-nachrichten/a-15769265'
p628
aS'http://www.dw.de/25022012-langsam-gesprochene-nachrichten/a-15768040'
p629
aS'http://www.dw.de/24022012-langsam-gesprochene-nachrichten/a-15765659'
p630
aS'http://www.dw.de/23022012-langsam-gesprochene-nachrichten/a-15760324'
p631
aS'http://www.dw.de/22022012-langsam-gesprochene-nachrichten/a-15757989'
p632
aS'http://www.dw.de/21022012-langsam-gesprochene-nachrichten/a-15754160'
p633
aS'http://www.dw.de/20022012-langsam-gesprochene-nachrichten/a-15752124'
p634
aS'http://www.dw.de/19022012-langsam-gesprochene-nachrichten/a-15751044'
p635
aS'http://www.dw.de/18022012-langsam-gesprochene-nachrichten/a-15750102'
p636
aS'http://www.dw.de/17022012-langsam-gesprochene-nachrichten/a-15747624'
p637
aS'http://www.dw.de/16022012-langsam-gesprochene-nachrichten/a-15744942'
p638
aS'http://www.dw.de/15022012-langsam-gesprochene-nachrichten/a-15743002'
p639
aS'http://www.dw.de/14022012-langsam-gesprochene-nachrichten/a-15741085'
p640
aS'http://www.dw.de/13022012-langsam-gesprochene-nachrichten/a-15738817'
p641
aS'http://www.dw.de/12022012-langsam-gesprochene-nachrichten/a-15737902'
p642
aS'http://www.dw.de/11022012-langsam-gesprochene-nachrichten/a-15736819'
p643
aS'http://www.dw.de/10022012-langsam-gesprochene-nachrichten/a-15734463'
p644
aS'http://www.dw.de/09022012-langsam-gesprochene-nachrichten/a-15729615'
p645
aS'http://www.dw.de/08022012-langsam-gesprochene-nachrichten/a-15726034'
p646
aS'http://www.dw.de/07022012-langsam-gesprochene-nachrichten/a-15723430'
p647
aS'http://www.dw.de/06022012-langsam-gesprochene-nachrichten/a-15720876'
p648
aS'http://www.dw.de/05022012-langsam-gesprochene-nachrichten/a-15719459'
p649
aS'http://www.dw.de/04022012-langsam-gesprochene-nachrichten/a-15717993'
p650
aS'http://www.dw.de/03022012-langsam-gesprochene-nachrichten/a-15715135'
p651
aS'http://www.dw.de/02022012-langsam-gesprochene-nachrichten/a-15711695'
p652
aS'http://www.dw.de/01022012-langsam-gesprochene-nachrichten/a-15706764'
p653
aS'http://www.dw.de/31012012-langsam-gesprochene-nachrichten/a-15704575'
p654
aS'http://www.dw.de/30012012-langsam-gesprochene-nachrichten/a-15702104'
p655
aS'http://www.dw.de/29012012-langsam-gesprochene-nachrichten/a-15701054'
p656
aS'http://www.dw.de/28012012-langsam-gesprochene-nachrichten/a-15700122'
p657
aS'http://www.dw.de/27012012-langsam-gesprochene-nachrichten/a-15697397'
p658
aS'http://www.dw.de/26012012-langsam-gesprochene-nachrichten/a-15691323'
p659
aS'http://www.dw.de/25012012-langsam-gesprochene-nachrichten/a-15689063'
p660
aS'http://www.dw.de/24012012-langsam-gesprochene-nachrichten/a-15686619'
p661
aS'http://www.dw.de/23012012-langsam-gesprochene-nachrichten/a-15684396'
p662
aS'http://www.dw.de/22012012-langsam-gesprochene-nachrichten/a-15683236'
p663
aS'http://www.dw.de/21012012-langsam-gesprochene-nachrichten/a-15681845'
p664
aS'http://www.dw.de/20012012-langsam-gesprochene-nachrichten/a-15679693'
p665
aS'http://www.dw.de/19012012-langsam-gesprochene-nachrichten/a-15674867'
p666
aS'http://www.dw.de/18012012-langsam-gesprochene-nachrichten/a-15672894'
p667
aS'http://www.dw.de/17012012-langsam-gesprochene-nachrichten/a-15670850'
p668
aS'http://www.dw.de/16012012-langsam-gesprochene-nachrichten/a-15668800'
p669
aS'http://www.dw.de/15012012-langsam-gesprochene-nachrichten/a-15667842'
p670
aS'http://www.dw.de/14012012-langsam-gesprochene-nachrichten/a-15666701'
p671
aS'http://www.dw.de/13012012-langsam-gesprochene-nachrichten/a-15664254'
p672
aS'http://www.dw.de/12012012-langsam-gesprochene-nachrichten/a-15661224'
p673
aS'http://www.dw.de/11012012-langsam-gesprochene-nachrichten/a-15657961'
p674
aS'http://www.dw.de/10012012-langsam-gesprochene-nachrichten/a-15655877'
p675
aS'http://www.dw.de/09012012-langsam-gesprochene-nachrichten/a-15653936'
p676
aS'http://www.dw.de/08012012-langsam-gesprochene-nachrichten/a-15652928'
p677
aS'http://www.dw.de/07012012-langsam-gesprochene-nachrichten/a-15652085'
p678
aS'http://www.dw.de/06012012-langsam-gesprochene-nachrichten/a-15649411'
p679
aS'http://www.dw.de/05012012-langsam-gesprochene-nachrichten/a-15647394'
p680
aS'http://www.dw.de/04012012-langsam-gesprochene-nachrichten/a-15643536'
p681
aS'http://www.dw.de/03012012-langsam-gesprochene-nachrichten/a-15641853'
p682
aS'http://www.dw.de/02012012-langsam-gesprochene-nachrichten/a-15640380'
p683
aS'http://www.dw.de/01012012-langsam-gesprochene-nachrichten/a-15639250'
p684
aS'http://www.dw.de/31122011-langsam-gesprochene-nachrichten/a-15638350'
p685
aS'http://www.dw.de/30122011-langsam-gesprochene-nachrichten/a-15636404'
p686
aS'http://www.dw.de/29122011-langsam-gesprochene-nachrichten/a-15634551'
p687
aS'http://www.dw.de/28122011-langsam-gesprochene-nachrichten/a-15631631'
p688
aS'http://www.dw.de/27122011-langsam-gesprochene-nachrichten/a-15628389'
p689
aS'http://www.dw.de/25122011-langsam-gesprochene-nachrichten/a-15626026'
p690
aS'http://www.dw.de/24122011-langsam-gesprochene-nachrichten/a-15625048'
p691
aS'http://www.dw.de/23122011-langsam-gesprochene-nachrichten/a-15622515'
p692
aS'http://www.dw.de/22122011-langsam-gesprochene-nachrichten/a-15620238'
p693
aS'http://www.dw.de/21122011-langsam-gesprochene-nachrichten/a-15617737'
p694
aS'http://www.dw.de/20122011-langsam-gesprochene-nachrichten/a-15614141'
p695
aS'http://www.dw.de/19122011-langsam-gesprochene-nachrichten/a-15611952'
p696
aS'http://www.dw.de/18122011-langsam-gesprochene-nachrichten/a-15610582'
p697
aS'http://www.dw.de/17122011-langsam-gesprochene-nachrichten/a-15609378'
p698
aS'http://www.dw.de/16122011-langsam-gesprochene-nachrichten/a-15606774'
p699
aS'http://www.dw.de/15122011-langsam-gesprochene-nachrichten/a-15603989'
p700
aS'http://www.dw.de/14122011-langsam-gesprochene-nachrichten/a-15600417'
p701
aS'http://www.dw.de/13122011-langsam-gesprochene-nachrichten/a-15597630'
p702
aS'http://www.dw.de/12122011-langsam-gesprochene-nachrichten/a-15595400'
p703
aS'http://www.dw.de/11122011-langsam-gesprochene-nachrichten/a-15593957'
p704
aS'http://www.dw.de/10122011-langsam-gesprochene-nachrichten/a-15592641'
p705
aS'http://www.dw.de/09122011-langsam-gesprochene-nachrichten/a-15588907'
p706
aS'http://www.dw.de/08122011-langsam-gesprochene-nachrichten/a-15586053'
p707
aS'http://www.dw.de/07122011-langsam-gesprochene-nachrichten/a-15583840'
p708
aS'http://www.dw.de/06122011-langsam-gesprochene-nachrichten/a-15581054'
p709
aS'http://www.dw.de/05122011-langsam-gesprochene-nachrichten/a-15578426'
p710
aS'http://www.dw.de/04122011-langsam-gesprochene-nachrichten/a-15576987'
p711
aS'http://www.dw.de/03122011-langsam-gesprochene-nachrichten/a-15575754'
p712
aS'http://www.dw.de/02122011-langsam-gesprochene-nachrichten/a-15573085'
p713
aS'http://www.dw.de/01122011-langsam-gesprochene-nachrichten/a-15569880'
p714
aS'http://www.dw.de/30112011-langsam-gesprochene-nachrichten/a-15565888'
p715
aS'http://www.dw.de/29112011-langsam-gesprochene-nachrichten/a-15563676'
p716
aS'http://www.dw.de/28112011-langsam-gesprochene-nachrichten/a-15561530'
p717
aS'http://www.dw.de/27112011-langsam-gesprochene-nachrichten/a-15560418'
p718
aS'http://www.dw.de/26112011-langsam-gesprochene-nachrichten/a-15559829'
p719
aS'http://www.dw.de/25112011-langsam-gesprochene-nachrichten/a-15556396'
p720
aS'http://www.dw.de/24112011-langsam-gesprochene-nachrichten/a-15554194'
p721
aS'http://www.dw.de/23112011-langsam-gesprochene-nachrichten/a-15549999'
p722
aS'http://www.dw.de/22112011-langsam-gesprochene-nachrichten/a-15547878'
p723
aS'http://www.dw.de/21112011-langsam-gesprochene-nachrichten/a-15545796'
p724
aS'http://www.dw.de/20112011-langsam-gesprochene-nachrichten/a-15545034'
p725
aS'http://www.dw.de/19112011-langsam-gesprochene-nachrichten/a-15543584'
p726
aS'http://www.dw.de/18112011-langsam-gesprochene-nachrichten/a-15541885'
p727
aS'http://www.dw.de/17112011-langsam-gesprochene-nachrichten/a-15538494'
p728
aS'http://www.dw.de/16112011-langsam-gesprochene-nachrichten/a-15534788'
p729
aS'http://www.dw.de/15112011-langsam-gesprochene-nachrichten/a-15532332'
p730
aS'http://www.dw.de/14112011-langsam-gesprochene-nachrichten/a-15530320'
p731
aS'http://www.dw.de/13112011-langsam-gesprochene-nachrichten/a-15529205'
p732
aS'http://www.dw.de/12112011-langsam-gesprochene-nachrichten/a-15528155'
p733
aS'http://www.dw.de/11112011-langsam-gesprochene-nachrichten/a-15525609'
p734
aS'http://www.dw.de/10112011-langsam-gesprochene-nachrichten/a-15523179'
p735
aS'http://www.dw.de/09112011-langsam-gesprochene-nachrichten/a-15519114'
p736
aS'http://www.dw.de/08112011-langsam-gesprochene-nachrichten/a-15517021'
p737
aS'http://www.dw.de/07112011-langsam-gesprochene-nachrichten/a-15515090'
p738
aS'http://www.dw.de/06112011-langsam-gesprochene-nachrichten/a-15514145'
p739
aS'http://www.dw.de/05112011-langsam-gesprochene-nachrichten/a-15512744'
p740
aS'http://www.dw.de/04112011-langsam-gesprochene-nachrichten/a-15510291'
p741
aS'http://www.dw.de/03112011-langsam-gesprochene-nachrichten/a-15508710'
p742
aS'http://www.dw.de/02112011-langsam-gesprochene-nachrichten/a-15504966'
p743
aS'http://www.dw.de/01112011-langsam-gesprochene-nachrichten/a-15501879'
p744
aS'http://www.dw.de/31102011-langsam-gesprochene-nachrichten/a-15499608'
p745
aS'http://www.dw.de/30102011-langsam-gesprochene-nachrichten/a-15498828'
p746
aS'http://www.dw.de/29102011-langsam-gesprochene-nachrichten/a-15497581'
p747
aS'http://www.dw.de/28102011-langsam-gesprochene-nachrichten/a-15493539'
p748
aS'http://www.dw.de/27102011-langsam-gesprochene-nachrichten/a-15491180'
p749
aS'http://www.dw.de/26102011-langsam-gesprochene-nachrichten/a-15488305'
p750
aS'http://www.dw.de/25102011-langsam-gesprochene-nachrichten/a-15484406'
p751
aS'http://www.dw.de/24102011-langsam-gesprochene-nachrichten/a-15481834'
p752
aS'http://www.dw.de/23102011-langsam-gesprochene-nachrichten/a-15480935'
p753
aS'http://www.dw.de/22102011-langsam-gesprochene-nachrichten/a-15479716'
p754
aS'http://www.dw.de/21102011-langsam-gesprochene-nachrichten/a-15477316'
p755
aS'http://www.dw.de/20102011-langsam-gesprochene-nachrichten/a-15474769'
p756
aS'http://www.dw.de/19102011-langsam-gesprochene-nachrichten/a-15472336'
p757
aS'http://www.dw.de/18102011-langsam-gesprochene-nachrichten/a-15467932'
p758
aS'http://www.dw.de/17102011-langsam-gesprochene-nachrichten/a-15465029'
p759
aS'http://www.dw.de/16102011-langsam-gesprochene-nachrichten/a-15464363'
p760
aS'http://www.dw.de/15102011-langsam-gesprochene-nachrichten/a-15462992'
p761
aS'http://www.dw.de/14102011-langsam-gesprochene-nachrichten/a-15459551'
p762
aS'http://www.dw.de/13102011-langsam-gesprochene-nachrichten/a-15457100'
p763
aS'http://www.dw.de/12102011-langsam-gesprochene-nachrichten/a-15454729'
p764
aS'http://www.dw.de/11102011-langsam-gesprochene-nachrichten/a-15452522'
p765
aS'http://www.dw.de/10102011-langsam-gesprochene-nachrichten/a-15448263'
p766
aS'http://www.dw.de/09102011-langsam-gesprochene-nachrichten/a-15447465'
p767
aS'http://www.dw.de/08102011-langsam-gesprochene-nachrichten/a-15446208'
p768
aS'http://www.dw.de/07102011-langsam-gesprochene-nachrichten/a-15443170'
p769
aS'http://www.dw.de/06102011-langsam-gesprochene-nachrichten/a-15440678'
p770
aS'http://www.dw.de/05102011-langsam-gesprochene-nachrichten/a-15436681'
p771
aS'http://www.dw.de/04102011-langsam-gesprochene-nachrichten/a-15434391'
p772
aS'http://www.dw.de/03102011-langsam-gesprochene-nachrichten/a-15433452'
p773
aS'http://www.dw.de/02102011-langsam-gesprochene-nachrichten/a-15432169'
p774
aS'http://www.dw.de/01102011-langsam-gesprochene-nachrichten/a-15431050'
p775
aS'http://www.dw.de/30092011-langsam-gesprochene-nachrichten/a-15427841'
p776
aS'http://www.dw.de/29092011-langsam-gesprochene-nachrichten/a-15425290'
p777
aS'http://www.dw.de/28092011-langsam-gesprochene-nachrichten/a-15422841'
p778
aS'http://www.dw.de/27092011-langsam-gesprochene-nachrichten/a-15418161'
p779
aS'http://www.dw.de/26092011-langsam-gesprochene-nachrichten/a-15415840'
p780
aS'http://www.dw.de/25092011-langsam-gesprochene-nachrichten/a-15415091'
p781
aS'http://www.dw.de/24092011-langsam-gesprochene-nachrichten/a-15413987'
p782
aS'http://www.dw.de/23092011-langsam-gesprochene-nachrichten/a-15410762'
p783
aS'http://www.dw.de/22092011-langsam-gesprochene-nachrichten/a-15408241'
p784
aS'http://www.dw.de/21092011-langsam-gesprochene-nachrichten/a-15404175'
p785
aS'http://www.dw.de/20092011-langsam-gesprochene-nachrichten/a-15401420'
p786
aS'http://www.dw.de/19092011-langsam-gesprochene-nachrichten/a-15398109'
p787
aS'http://www.dw.de/18092011-langsam-gesprochene-nachrichten/a-15397252'
p788
aS'http://www.dw.de/17092011-langsam-gesprochene-nachrichten/a-15396193'
p789
aS'http://www.dw.de/16092011-langsam-gesprochene-nachrichten/a-15391858'
p790
aS'http://www.dw.de/15092011-langsam-gesprochene-nachrichten/a-15389243'
p791
aS'http://www.dw.de/14092011-langsam-gesprochene-nachrichten/a-15386815'
p792
aS'http://www.dw.de/13092011-langsam-gesprochene-nachrichten/a-15382766'
p793
aS'http://www.dw.de/12092011-langsam-gesprochene-nachrichten/a-15380659'
p794
aS'http://www.dw.de/11092011-langsam-gesprochene-nachrichten/a-15379744'
p795
aS'http://www.dw.de/10092011-langsam-gesprochene-nachrichten/a-15378473'
p796
aS'http://www.dw.de/09092011-langsam-gesprochene-nachrichten/a-15375464'
p797
aS'http://www.dw.de/08092011-langsam-gesprochene-nachrichten/a-15371440'
p798
aS'http://www.dw.de/07092011-langsam-gesprochene-nachrichten/a-15369066'
p799
aS'http://www.dw.de/06092011-langsam-gesprochene-nachrichten/a-15366818'
p800
aS'http://www.dw.de/05092011-langsam-gesprochene-nachrichten/a-15364727'
p801
aS'http://www.dw.de/04092011-langsam-gesprochene-nachrichten/a-15363953'
p802
aS'http://www.dw.de/03092011-langsam-gesprochene-nachrichten/a-15362872'
p803
aS'http://www.dw.de/02092011-langsam-gesprochene-nachrichten/a-15360152'
p804
aS'http://www.dw.de/01092011-langsam-gesprochene-nachrichten/a-15358511'
p805
aS'http://www.dw.de/31082011-langsam-gesprochene-nachrichten/a-15354012'
p806
aS'http://www.dw.de/30082011-langsam-gesprochene-nachrichten/a-15351795'
p807
aS'http://www.dw.de/28082011-langsam-gesprochene-nachrichten/a-15349146'
p808
aS'http://www.dw.de/29082011-langsam-gesprochene-nachrichten/a-15349877'
p809
aS'http://www.dw.de/27082011-langsam-gesprochene-nachrichten/a-15347888'
p810
aS'http://www.dw.de/26082011-langsam-gesprochene-nachrichten/a-15345271'
p811
aS'http://www.dw.de/25082011-langsam-gesprochene-nachrichten/a-15342721'
p812
aS'http://www.dw.de/24082011-langsam-gesprochene-nachrichten/a-15340431'
p813
aS'http://www.dw.de/23082011-langsam-gesprochene-nachrichten/a-15336242'
p814
aS'http://www.dw.de/22082011-langsam-gesprochene-nachrichten/a-15334136'
p815
aS'http://www.dw.de/21082011-langsam-gesprochene-nachrichten/a-15333438'
p816
aS'http://www.dw.de/20082011-langsam-gesprochene-nachrichten/a-15332240'
p817
aS'http://www.dw.de/19082011-langsam-gesprochene-nachrichten/a-15327663'
p818
aS'http://www.dw.de/18082011-langsam-gesprochene-nachrichten/a-15324729'
p819
aS'http://www.dw.de/17082011-langsam-gesprochene-nachrichten/a-15322580'
p820
aS'http://www.dw.de/16082011-langsam-gesprochene-nachrichten/a-15318595'
p821
aS'http://www.dw.de/15082011-langsam-gesprochene-nachrichten/a-15316723'
p822
aS'http://www.dw.de/14082011-langsam-gesprochene-nachrichten/a-15315866'
p823
aS'http://www.dw.de/13082011-langsam-gesprochene-nachrichten/a-15314802'
p824
aS'http://www.dw.de/12082011-langsam-gesprochene-nachrichten/a-15312380'
p825
aS'http://www.dw.de/11082011-langsam-gesprochene-nachrichten/a-15310212'
p826
aS'http://www.dw.de/10082011-langsam-gesprochene-nachrichten/a-15306181'
p827
aS'http://www.dw.de/09082011-langsam-gesprochene-nachrichten/a-15304072'
p828
aS'http://www.dw.de/08082011-langsam-gesprochene-nachrichten/a-15302177'
p829
aS'http://www.dw.de/07082011-langsam-gesprochene-nachrichten/a-15301351'
p830
aS'http://www.dw.de/06082011-langsam-gesprochene-nachrichten/a-15300177'
p831
aS'http://www.dw.de/05082011-langsam-gesprochene-nachrichten/a-15297792'
p832
aS'http://www.dw.de/04082011-langsam-gesprochene-nachrichten/a-15295159'
p833
aS'http://www.dw.de/03082011-langsam-gesprochene-nachrichten/a-15291041'
p834
aS'http://www.dw.de/02082011-langsam-gesprochene-nachrichten/a-15287698'
p835
aS'http://www.dw.de/01082011-langsam-gesprochene-nachrichten/a-15280759'
p836
aS'http://www.dw.de/31072011-langsam-gesprochene-nachrichten/a-15280035'
p837
aS'http://www.dw.de/30072011-langsam-gesprochene-nachrichten/a-15278805'
p838
aS'http://www.dw.de/29072011-langsam-gesprochene-nachrichten/a-15275808'
p839
aS'http://www.dw.de/28072011-langsam-gesprochene-nachrichten/a-15273710'
p840
aS'http://www.dw.de/27072011-langsam-gesprochene-nachrichten/a-15271715'
p841
aS'http://www.dw.de/26072011-langsam-gesprochene-nachrichten/a-15265769'
p842
aS'http://www.dw.de/25072011-langsam-gesprochene-nachrichten/a-15263736'
p843
aS'http://www.dw.de/23072011-langsam-gesprochene-nachrichten/a-15261818'
p844
aS'http://www.dw.de/24072011-langsam-gesprochene-nachrichten/a-15263045'
p845
aS'http://www.dw.de/22072011-langsam-gesprochene-nachrichten/a-15258870'
p846
aS'http://www.dw.de/21072011-langsam-gesprochene-nachrichten/a-15255561'
p847
aS'http://www.dw.de/20072011-langsam-gesprochene-nachrichten/a-15252899'
p848
aS'http://www.dw.de/19072011-langsam-gesprochene-nachrichten/a-15249856'
p849
aS'http://www.dw.de/18072011-langsam-gesprochene-nachrichten/a-15244979'
p850
aS'http://www.dw.de/17072011-langsam-gesprochene-nachrichten/a-15240077'
p851
aS'http://www.dw.de/15072011-langsam-gesprochene-nachrichten/a-15236990'
p852
aS'http://www.dw.de/14072011-langsam-gesprochene-nachrichten/a-15233532'
p853
aS'http://www.dw.de/13072011-langsam-gesprochene-nachrichten/a-15229939'
p854
aS'http://www.dw.de/12072011-langsam-gesprochene-nachrichten/a-15227613'
p855
aS'http://www.dw.de/11072011-langsam-gesprochene-nachrichten/a-15225696'
p856
aS'http://www.dw.de/10072011-langsam-gesprochene-nachrichten/a-15224464'
p857
aS'http://www.dw.de/09072011-langsam-gesprochene-nachrichten/a-15223155'
p858
aS'http://www.dw.de/08072011-langsam-gesprochene-nachrichten/a-15219591'
p859
aS'http://www.dw.de/07072011-langsam-gesprochene-nachrichten/a-15217211'
p860
aS'http://www.dw.de/06072011-langsam-gesprochene-nachrichten/a-15213539'
p861
aS'http://www.dw.de/05072011-langsam-gesprochene-nachrichten/a-15210775'
p862
aS'http://www.dw.de/04072011-langsam-gesprochene-nachrichten/a-15208593'
p863
aS'http://www.dw.de/03072011-langsam-gesprochene-nachrichten/a-15207749'
p864
aS'http://www.dw.de/02072011-langsam-gesprochene-nachrichten/a-15206457'
p865
aS'http://www.dw.de/01072011-langsam-gesprochene-nachrichten/a-15203584'
p866
aS'http://www.dw.de/30062011-langsam-gesprochene-nachrichten/a-15200081'
p867
aS'http://www.dw.de/29062011-langsam-gesprochene-nachrichten/a-15196579'
p868
aS'http://www.dw.de/28062011-langsam-gesprochene-nachrichten/a-15193705'
p869
aS'http://www.dw.de/27062011-langsam-gesprochene-nachrichten/a-15191517'
p870
aS'http://www.dw.de/26062011-langsam-gesprochene-nachrichten/a-15132834'
p871
aS'http://www.dw.de/25062011-langsam-gesprochene-nachrichten/a-15189778'
p872
aS'http://www.dw.de/24062011-langsam-gesprochene-nachrichten/a-15185946'
p873
aS'http://www.dw.de/23062011-langsam-gesprochene-nachrichten/a-15184000'
p874
aS'http://www.dw.de/22062011-langsam-gesprochene-nachrichten/a-15180465'
p875
aS'http://www.dw.de/21062011-langsam-gesprochene-nachrichten/a-15175839'
p876
aS'http://www.dw.de/20062011-langsam-gesprochene-nachrichten/a-15173666'
p877
aS'http://www.dw.de/19062011-langsam-gesprochene-nachrichten/a-15172821'
p878
aS'http://www.dw.de/18062011-langsam-gesprochene-nachrichten/a-15171448'
p879
aS'http://www.dw.de/17062011-langsam-gesprochene-nachrichten/a-15164354'
p880
aS'http://www.dw.de/16062011-langsam-gesprochene-nachrichten/a-15159270'
p881
aS'http://www.dw.de/15062011-langsam-gesprochene-nachrichten/a-15154741'
p882
aS'http://www.dw.de/14062011-langsam-gesprochene-nachrichten/a-15152200'
p883
aS'http://www.dw.de/13062011-langsam-gesprochene-nachrichten/a-15150313'
p884
aS'http://www.dw.de/12062011-langsam-gesprochene-nachrichten/a-15149368'
p885
aS'http://www.dw.de/11062011-langsam-gesprochene-nachrichten/a-15148086'
p886
aS'http://www.dw.de/10062011-langsam-gesprochene-nachrichten/a-15145265'
p887
aS'http://www.dw.de/09062011-langsam-gesprochene-nachrichten/a-15143032'
p888
aS'http://www.dw.de/08062011-langsam-gesprochene-nachrichten/a-15140722'
p889
aS'http://www.dw.de/07062011-langsam-gesprochene-nachrichten/a-15136253'
p890
aS'http://www.dw.de/06062011-langsam-gesprochene-nachrichten/a-15133907'
p891
aS'http://www.dw.de/05062011-langsam-gesprochene-nachrichten/a-15132833'
p892
aS'http://www.dw.de/04062011-langsam-gesprochene-nachrichten/a-15131342'
p893
aS'http://www.dw.de/03062011-langsam-gesprochene-nachrichten/a-15127350'
p894
aS'http://www.dw.de/02062011-langsam-gesprochene-nachrichten/a-15125563'
p895
aS'http://www.dw.de/01062011-langsam-gesprochene-nachrichten/a-15122520'
p896
aS'http://www.dw.de/31052011-langsam-gesprochene-nachrichten/a-15118998'
p897
aS'http://www.dw.de/30052011-langsam-gesprochene-nachrichten/a-15116503'
p898
aS'http://www.dw.de/29052011-langsam-gesprochene-nachrichten/a-15115597'
p899
aS'http://www.dw.de/28052011-langsam-gesprochene-nachrichten/a-15114423'
p900
aS'http://www.dw.de/27052011-langsam-gesprochene-nachrichten/a-15110601'
p901
aS'http://www.dw.de/26052011-langsam-gesprochene-nachrichten/a-15108104'
p902
aS'http://www.dw.de/25052011-langsam-gesprochene-nachrichten/a-15105550'
p903
a.